target datalayout = "e-m:e-p270:32:32-p271:32:32-p272:64:64-i64:64-i128:128-f80:128-n8:16:32:64-S128"
target triple = "x86_64-pc-linux-gnu"

%struct.Curl_cfilter = type { ptr, ptr, ptr, ptr, i32, i8 }
%struct.cf_call_data = type { ptr }
%struct.cf_h2_proxy_ctx = type { ptr, %struct.cf_call_data, %struct.bufq, %struct.bufq, %struct.tunnel_stream, i32, i32, i8 }
%struct.bufq = type { ptr, ptr, ptr, ptr, i64, i64, i64, i32 }
%struct.tunnel_stream = type { ptr, %struct.bufq, %struct.bufq, ptr, i32, i32, i32, i8 }

@.str.11 = private unnamed_addr constant [26 x i8] c"Failed sending HTTP2 data\00", align 1

; Function Attrs: nounwind uwtable
define internal i64 @on_session_send(ptr noundef %0, ptr noundef %1, i64 noundef %2, i32 noundef %3, ptr noundef %4) #0 {
  %6 = alloca i64, align 8
  %7 = alloca ptr, align 8
  %8 = alloca ptr, align 8
  %9 = alloca i64, align 8
  %10 = alloca i32, align 4
  %11 = alloca ptr, align 8
  %12 = alloca ptr, align 8
  %13 = alloca ptr, align 8
  %14 = alloca ptr, align 8
  %15 = alloca i64, align 8
  %16 = alloca i32, align 4
  %17 = alloca i32, align 4
  store ptr %0, ptr %7, align 8, !tbaa !131
  store ptr %1, ptr %8, align 8, !tbaa !117
  store i64 %2, ptr %9, align 8, !tbaa !41
  store i32 %3, ptr %10, align 4, !tbaa !22
  store ptr %4, ptr %11, align 8, !tbaa !116
  call void @llvm.lifetime.start.p0(i64 8, ptr %12) #6
  %18 = load ptr, ptr %11, align 8, !tbaa !116
  store ptr %18, ptr %12, align 8, !tbaa !4
  call void @llvm.lifetime.start.p0(i64 8, ptr %13) #6
  %19 = load ptr, ptr %12, align 8, !tbaa !4
  %20 = getelementptr inbounds nuw %struct.Curl_cfilter, ptr %19, i32 0, i32 2
  %21 = load ptr, ptr %20, align 8, !tbaa !11
  store ptr %21, ptr %13, align 8, !tbaa !16
  call void @llvm.lifetime.start.p0(i64 8, ptr %14) #6
  %22 = load ptr, ptr %12, align 8, !tbaa !4
  %23 = icmp ne ptr %22, null
  br i1 %23, label %24, label %31

24:                                               ; preds = %5
  %25 = load ptr, ptr %12, align 8, !tbaa !4
  %26 = getelementptr inbounds nuw %struct.Curl_cfilter, ptr %25, i32 0, i32 2
  %27 = load ptr, ptr %26, align 8, !tbaa !11
  %28 = getelementptr inbounds nuw %struct.cf_h2_proxy_ctx, ptr %27, i32 0, i32 1
  %29 = getelementptr inbounds nuw %struct.cf_call_data, ptr %28, i32 0, i32 0
  %30 = load ptr, ptr %29, align 8, !tbaa !29
  br label %32

31:                                               ; preds = %5
  br label %32

32:                                               ; preds = %31, %24
  %33 = phi ptr [ %30, %24 ], [ null, %31 ]
  store ptr %33, ptr %14, align 8, !tbaa !9
  call void @llvm.lifetime.start.p0(i64 8, ptr %15) #6
  call void @llvm.lifetime.start.p0(i64 4, ptr %16) #6
  store i32 0, ptr %16, align 4, !tbaa !22
  br label %34

34:                                               ; preds = %32
  br label %35

35:                                               ; preds = %34
  br label %36

36:                                               ; preds = %35
  %37 = load ptr, ptr %13, align 8, !tbaa !16
  %38 = getelementptr inbounds nuw %struct.cf_h2_proxy_ctx, ptr %37, i32 0, i32 3
  %39 = load ptr, ptr %8, align 8, !tbaa !117
  %40 = load i64, ptr %9, align 8, !tbaa !41
  %41 = load ptr, ptr %12, align 8, !tbaa !4
  %42 = call i64 @Curl_bufq_write_pass(ptr noundef %38, ptr noundef %39, i64 noundef %40, ptr noundef @proxy_h2_nw_out_writer, ptr noundef %41, ptr noundef %16)
  store i64 %42, ptr %15, align 8, !tbaa !41
  %43 = load i64, ptr %15, align 8, !tbaa !41
  %44 = icmp slt i64 %43, 0
  br i1 %44, label %45, label %51

45:                                               ; preds = %36
  %46 = load i32, ptr %16, align 4, !tbaa !22
  %47 = icmp eq i32 %46, 81
  br i1 %47, label %48, label %49

48:                                               ; preds = %45
  store i64 -504, ptr %6, align 8
  store i32 1, ptr %17, align 4
  br label %57

49:                                               ; preds = %45
  %50 = load ptr, ptr %14, align 8, !tbaa !9
  call void (ptr, ptr, ...) @Curl_failf(ptr noundef %50, ptr noundef @.str.11)
  store i64 -902, ptr %6, align 8
  store i32 1, ptr %17, align 4
  br label %57

51:                                               ; preds = %36
  %52 = load i64, ptr %15, align 8, !tbaa !41
  %53 = icmp ne i64 %52, 0
  br i1 %53, label %55, label %54

54:                                               ; preds = %51
  store i64 -504, ptr %6, align 8
  store i32 1, ptr %17, align 4
  br label %57

55:                                               ; preds = %51
  %56 = load i64, ptr %15, align 8, !tbaa !41
  store i64 %56, ptr %6, align 8
  store i32 1, ptr %17, align 4
  br label %57

57:                                               ; preds = %55, %54, %49, %48
  call void @llvm.lifetime.end.p0(i64 4, ptr %16) #6
  call void @llvm.lifetime.end.p0(i64 8, ptr %15) #6
  call void @llvm.lifetime.end.p0(i64 8, ptr %14) #6
  call void @llvm.lifetime.end.p0(i64 8, ptr %13) #6
  call void @llvm.lifetime.end.p0(i64 8, ptr %12) #6
  %58 = load i64, ptr %6, align 8
  ret i64 %58
}