; Function Attrs: nounwind uwtable
define internal range(i64 -902, -9223372036854775808) i64 @on_session_send(ptr readnone captures(none) %0, ptr noundef %1, i64 noundef %2, i32 %3, ptr noundef %4) #0 {
  %6 = alloca i32, align 4
  %7 = getelementptr inbounds nuw i8, ptr %4, i64 16
  %8 = load ptr, ptr %7, align 8, !tbaa !4
  %9 = getelementptr inbounds nuw i8, ptr %8, i64 8
  %10 = load ptr, ptr %9, align 8, !tbaa !34
  call void @llvm.lifetime.start.p0(i64 4, ptr nonnull %6) #7
  store i32 0, ptr %6, align 4, !tbaa !40
  %11 = getelementptr inbounds nuw i8, ptr %8, i64 80
  %12 = call i64 @Curl_bufq_write_pass(ptr noundef nonnull %11, ptr noundef %1, i64 noundef %2, ptr noundef nonnull @proxy_h2_nw_out_writer, ptr noundef %4, ptr noundef nonnull %6) #7
  %13 = icmp slt i64 %12, 0
  br i1 %13, label %14, label %18

14:                                               ; preds = %5
  %15 = load i32, ptr %6, align 4, !tbaa !40
  %16 = icmp eq i32 %15, 81
  br i1 %16, label %19, label %17

17:                                               ; preds = %14
  call void (ptr, ptr, ...) @Curl_failf(ptr noundef %10, ptr noundef nonnull @.str.11) #7
  br label %19

18:                                               ; preds = %5
  %.not13 = icmp eq i64 %12, 0
  %. = select i1 %.not13, i64 -504, i64 %12
  br label %19

19:                                               ; preds = %18, %14, %17
  %.0 = phi i64 [ -902, %17 ], [ -504, %14 ], [ %., %18 ]
  call void @llvm.lifetime.end.p0(i64 4, ptr nonnull %6) #7
  ret i64 %.0
}